; Function Attrs: mustprogress uwtable
define internal void @_ZN6duckdbL18MapEntriesFunctionERNS_9DataChunkERNS_15ExpressionStateERNS_6VectorE(ptr noundef nonnull align 8 dereferenceable(64) %0, ptr nonnull readnone align 8 captures(none) %1, ptr noundef nonnull align 8 dereferenceable(104) %2) #3 {
  %4 = getelementptr inbounds nuw i8, ptr %0, i64 24
  %5 = load i64, ptr %4, align 8, !tbaa !65
  %6 = tail call noundef nonnull align 8 dereferenceable(104) ptr @_ZN6duckdb6vectorINS_6VectorELb1EEixEm(ptr noundef nonnull align 8 dereferenceable(24) %0, i64 noundef 0)
  %7 = getelementptr inbounds nuw i8, ptr %6, i64 8
  %8 = load i8, ptr %7, align 8, !tbaa !46
  %9 = icmp eq i8 %8, 1
  br i1 %9, label %10, label %11

10:                                               ; preds = %3
  tail call void @_ZN6duckdb6Vector13SetVectorTypeENS_10VectorTypeE(ptr noundef nonnull align 8 dereferenceable(104) %2, i8 noundef zeroext 2)
  tail call void @_ZN6duckdb14ConstantVector7SetNullERNS_6VectorEb(ptr noundef nonnull align 8 dereferenceable(104) %2, i1 noundef zeroext true)
  br label %15

11:                                               ; preds = %3
  tail call void @_ZN6duckdb7MapUtil14ReinterpretMapERNS_6VectorES2_m(ptr noundef nonnull align 8 dereferenceable(104) %2, ptr noundef nonnull align 8 dereferenceable(104) %6, i64 noundef %5)
  %12 = tail call noundef zeroext i1 @_ZNK6duckdb9DataChunk11AllConstantEv(ptr noundef nonnull align 8 dereferenceable(64) %0)
  br i1 %12, label %13, label %14

13:                                               ; preds = %11
  tail call void @_ZN6duckdb6Vector13SetVectorTypeENS_10VectorTypeE(ptr noundef nonnull align 8 dereferenceable(104) %2, i8 noundef zeroext 2)
  br label %14

14:                                               ; preds = %13, %11
  tail call void @_ZN6duckdb6Vector6VerifyEm(ptr noundef nonnull align 8 dereferenceable(104) %2, i64 noundef %5)
  br label %15

15:                                               ; preds = %14, %10
  ret void
}